target datalayout = "e-m:e-p270:32:32-p271:32:32-p272:64:64-i64:64-i128:128-f80:128-n8:16:32:64-S128"
target triple = "x86_64-pc-linux-gnu"

%struct.AVEncryptionInfo = type { i32, i32, i32, ptr, i32, ptr, i32, ptr, i32 }

; Function Attrs: nounwind uwtable
define void @av_encryption_info_free(ptr noundef %0) #0 {
  %2 = alloca ptr, align 8
  store ptr %0, ptr %2, align 8, !tbaa !8
  %3 = load ptr, ptr %2, align 8, !tbaa !8
  %4 = icmp ne ptr %3, null
  br i1 %4, label %5, label %16

5:                                                ; preds = %1
  %6 = load ptr, ptr %2, align 8, !tbaa !8
  %7 = getelementptr inbounds nuw %struct.AVEncryptionInfo, ptr %6, i32 0, i32 3
  %8 = load ptr, ptr %7, align 8, !tbaa !11
  call void @av_free(ptr noundef %8)
  %9 = load ptr, ptr %2, align 8, !tbaa !8
  %10 = getelementptr inbounds nuw %struct.AVEncryptionInfo, ptr %9, i32 0, i32 5
  %11 = load ptr, ptr %10, align 8, !tbaa !16
  call void @av_free(ptr noundef %11)
  %12 = load ptr, ptr %2, align 8, !tbaa !8
  %13 = getelementptr inbounds nuw %struct.AVEncryptionInfo, ptr %12, i32 0, i32 7
  %14 = load ptr, ptr %13, align 8, !tbaa !18
  call void @av_free(ptr noundef %14)
  %15 = load ptr, ptr %2, align 8, !tbaa !8
  call void @av_free(ptr noundef %15)
  br label %16

16:                                               ; preds = %5, %1
  ret void
}

; Function Attrs: nounwind uwtable
define ptr @av_encryption_info_alloc(i32 noundef %0, i32 noundef %1, i32 noundef %2) #0 {
  %4 = alloca ptr, align 8
  %5 = alloca i32, align 4
  %6 = alloca i32, align 4
  %7 = alloca i32, align 4
  %8 = alloca ptr, align 8
  %9 = alloca i32, align 4
  store i32 %0, ptr %5, align 4, !tbaa !4
  store i32 %1, ptr %6, align 4, !tbaa !4
  store i32 %2, ptr %7, align 4, !tbaa !4
  call void @llvm.lifetime.start.p0(i64 8, ptr %8) #5
  %10 = call noalias ptr @av_mallocz(i64 noundef 64)
  store ptr %10, ptr %8, align 8, !tbaa !8
  %11 = load ptr, ptr %8, align 8, !tbaa !8
  %12 = icmp ne ptr %11, null
  br i1 %12, label %14, label %13

13:                                               ; preds = %3
  store ptr null, ptr %4, align 8
  store i32 1, ptr %9, align 4
  br label %60

14:                                               ; preds = %3
  %15 = load i32, ptr %6, align 4, !tbaa !4
  %16 = zext i32 %15 to i64
  %17 = call noalias ptr @av_mallocz(i64 noundef %16)
  %18 = load ptr, ptr %8, align 8, !tbaa !8
  %19 = getelementptr inbounds nuw %struct.AVEncryptionInfo, ptr %18, i32 0, i32 3
  store ptr %17, ptr %19, align 8, !tbaa !11
  %20 = load i32, ptr %6, align 4, !tbaa !4
  %21 = load ptr, ptr %8, align 8, !tbaa !8
  %22 = getelementptr inbounds nuw %struct.AVEncryptionInfo, ptr %21, i32 0, i32 4
  store i32 %20, ptr %22, align 8, !tbaa !15
  %23 = load i32, ptr %7, align 4, !tbaa !4
  %24 = zext i32 %23 to i64
  %25 = call noalias ptr @av_mallocz(i64 noundef %24)
  %26 = load ptr, ptr %8, align 8, !tbaa !8
  %27 = getelementptr inbounds nuw %struct.AVEncryptionInfo, ptr %26, i32 0, i32 5
  store ptr %25, ptr %27, align 8, !tbaa !16
  %28 = load i32, ptr %7, align 4, !tbaa !4
  %29 = load ptr, ptr %8, align 8, !tbaa !8
  %30 = getelementptr inbounds nuw %struct.AVEncryptionInfo, ptr %29, i32 0, i32 6
  store i32 %28, ptr %30, align 8, !tbaa !17
  %31 = load i32, ptr %5, align 4, !tbaa !4
  %32 = zext i32 %31 to i64
  %33 = call noalias ptr @av_calloc(i64 noundef %32, i64 noundef 8)
  %34 = load ptr, ptr %8, align 8, !tbaa !8
  %35 = getelementptr inbounds nuw %struct.AVEncryptionInfo, ptr %34, i32 0, i32 7
  store ptr %33, ptr %35, align 8, !tbaa !18
  %36 = load i32, ptr %5, align 4, !tbaa !4
  %37 = load ptr, ptr %8, align 8, !tbaa !8
  %38 = getelementptr inbounds nuw %struct.AVEncryptionInfo, ptr %37, i32 0, i32 8
  store i32 %36, ptr %38, align 8, !tbaa !19
  %39 = load ptr, ptr %8, align 8, !tbaa !8
  %40 = getelementptr inbounds nuw %struct.AVEncryptionInfo, ptr %39, i32 0, i32 3
  %41 = load ptr, ptr %40, align 8, !tbaa !11
  %42 = icmp ne ptr %41, null
  br i1 %42, label %43, label %56

43:                                               ; preds = %14
  %44 = load ptr, ptr %8, align 8, !tbaa !8
  %45 = getelementptr inbounds nuw %struct.AVEncryptionInfo, ptr %44, i32 0, i32 5
  %46 = load ptr, ptr %45, align 8, !tbaa !16
  %47 = icmp ne ptr %46, null
  br i1 %47, label %48, label %56

48:                                               ; preds = %43
  %49 = load ptr, ptr %8, align 8, !tbaa !8
  %50 = getelementptr inbounds nuw %struct.AVEncryptionInfo, ptr %49, i32 0, i32 7
  %51 = load ptr, ptr %50, align 8, !tbaa !18
  %52 = icmp ne ptr %51, null
  br i1 %52, label %58, label %53

53:                                               ; preds = %48
  %54 = load i32, ptr %5, align 4, !tbaa !4
  %55 = icmp ne i32 %54, 0
  br i1 %55, label %56, label %58

56:                                               ; preds = %53, %43, %14
  %57 = load ptr, ptr %8, align 8, !tbaa !8
  call void @av_encryption_info_free(ptr noundef %57)
  store ptr null, ptr %4, align 8
  store i32 1, ptr %9, align 4
  br label %60

58:                                               ; preds = %53, %48
  %59 = load ptr, ptr %8, align 8, !tbaa !8
  store ptr %59, ptr %4, align 8
  store i32 1, ptr %9, align 4
  br label %60

60:                                               ; preds = %58, %56, %13
  call void @llvm.lifetime.end.p0(i64 8, ptr %8) #5
  %61 = load ptr, ptr %4, align 8
  ret ptr %61
}