; Function Attrs: nounwind uwtable
define ptr @av_encryption_info_alloc(i32 noundef %0, i32 noundef %1, i32 noundef %2) local_unnamed_addr #0 {
  %4 = tail call noalias ptr @av_mallocz(i64 noundef 64) #4
  %.not = icmp eq ptr %4, null
  br i1 %.not, label %21, label %5

5:                                                ; preds = %3
  %6 = zext i32 %1 to i64
  %7 = tail call noalias ptr @av_mallocz(i64 noundef %6) #4
  %8 = getelementptr inbounds nuw i8, ptr %4, i64 16
  store ptr %7, ptr %8, align 8, !tbaa !4
  %9 = getelementptr inbounds nuw i8, ptr %4, i64 24
  store i32 %1, ptr %9, align 8, !tbaa !12
  %10 = zext i32 %2 to i64
  %11 = tail call noalias ptr @av_mallocz(i64 noundef %10) #4
  %12 = getelementptr inbounds nuw i8, ptr %4, i64 32
  store ptr %11, ptr %12, align 8, !tbaa !13
  %13 = getelementptr inbounds nuw i8, ptr %4, i64 40
  store i32 %2, ptr %13, align 8, !tbaa !14
  %14 = zext i32 %0 to i64
  %15 = tail call noalias ptr @av_calloc(i64 noundef %14, i64 noundef 8) #4
  %16 = getelementptr inbounds nuw i8, ptr %4, i64 48
  store ptr %15, ptr %16, align 8, !tbaa !15
  %17 = getelementptr inbounds nuw i8, ptr %4, i64 56
  store i32 %0, ptr %17, align 8, !tbaa !16
  %.not21 = icmp eq ptr %7, null
  %.not22 = icmp eq ptr %11, null
  %or.cond23 = select i1 %.not21, i1 true, i1 %.not22
  br i1 %or.cond23, label %av_encryption_info_free.exit, label %18

18:                                               ; preds = %5
  %19 = icmp eq ptr %15, null
  %20 = icmp ne i32 %0, 0
  %or.cond = and i1 %20, %19
  br i1 %or.cond, label %av_encryption_info_free.exit, label %21

av_encryption_info_free.exit:                     ; preds = %18, %5
  tail call void @av_free(ptr noundef %7) #4
  tail call void @av_free(ptr noundef %11) #4
  tail call void @av_free(ptr noundef %15) #4
  tail call void @av_free(ptr noundef nonnull %4) #4
  br label %21

21:                                               ; preds = %18, %3, %av_encryption_info_free.exit
  %.0 = phi ptr [ null, %av_encryption_info_free.exit ], [ null, %3 ], [ %4, %18 ]
  ret ptr %.0
}